	.file	"1_Variables.cpp"
	.text
	.section	.text$_ZSt23__is_constant_evaluatedv,"x"
	.linkonce discard
	.globl	__ZSt23__is_constant_evaluatedv
	.def	__ZSt23__is_constant_evaluatedv;	.scl	2;	.type	32;	.endef
__ZSt23__is_constant_evaluatedv:
LFB1:
	.cfi_startproc
	pushl	%ebp
	.cfi_def_cfa_offset 8
	.cfi_offset 5, -8
	movl	%esp, %ebp
	.cfi_def_cfa_register 5
	movl	$0, %eax
	popl	%ebp
	.cfi_restore 5
	.cfi_def_cfa 4, 4
	ret
	.cfi_endproc
LFE1:
	.section	.text$_ZNSt11char_traitsIcE6lengthEPKc,"x"
	.linkonce discard
	.globl	__ZNSt11char_traitsIcE6lengthEPKc
	.def	__ZNSt11char_traitsIcE6lengthEPKc;	.scl	2;	.type	32;	.endef
__ZNSt11char_traitsIcE6lengthEPKc:
LFB244:
	.cfi_startproc
	pushl	%ebp
	.cfi_def_cfa_offset 8
	.cfi_offset 5, -8
	movl	%esp, %ebp
	.cfi_def_cfa_register 5
	subl	$24, %esp
	call	__ZSt23__is_constant_evaluatedv
	testb	%al, %al
	je	L4
	movl	8(%ebp), %eax
	movl	%eax, (%esp)
	call	__ZN9__gnu_cxx11char_traitsIcE6lengthEPKc
	jmp	L5
L4:
	movl	8(%ebp), %eax
	movl	%eax, (%esp)
	call	_strlen
	nop
L5:
	leave
	.cfi_restore 5
	.cfi_def_cfa 4, 4
	ret
	.cfi_endproc
LFE244:
.lcomm __ZStL8__ioinit,1,1
	.def	___main;	.scl	2;	.type	32;	.endef
	.section .rdata,"dr"
LC0:
	.ascii "prefices \12\0"
	.align 4
LC1:
	.ascii "decimal de 10011101 (binaire) = \0"
LC2:
	.ascii "deciaml de 236 (octal) = \0"
	.align 4
LC3:
	.ascii "decimal de 15bf (hexadecimal) = \0"
LC4:
	.ascii "\12\0"
LC5:
	.ascii "utilisation string \12\0"
LC6:
	.ascii "Bien le bonsoir\0"
LC7:
	.ascii "welcome valeur 1 = \0"
LC8:
	.ascii "Hello\0"
LC9:
	.ascii "welcome valeur 2 = \0"
LC10:
	.ascii "valeur constante = \0"
	.text
	.globl	_main
	.def	_main;	.scl	2;	.type	32;	.endef
_main:
LFB1986:
	.cfi_startproc
	.cfi_personality 0x9b,LDFCM0
	.cfi_lsda 0x1b,LLSDA1986
	leal	4(%esp), %ecx
	.cfi_def_cfa 1, 0
	andl	$-16, %esp
	pushl	-4(%ecx)
	pushl	%ebp
	movl	%esp, %ebp
	.cfi_escape 0x10,0x5,0x2,0x75,0
	pushl	%ebx
	pushl	%ecx
	.cfi_escape 0xf,0x3,0x75,0x78,0x6
	.cfi_escape 0x10,0x3,0x2,0x75,0x7c
	subl	$64, %esp
	call	___main
	movl	$157, -12(%ebp)
	movl	$158, -16(%ebp)
	movl	$5567, -20(%ebp)
	movl	$14256365, -24(%ebp)
	movl	$LC0, 4(%esp)
	movl	$__ZSt4cout, (%esp)
LEHB0:
	call	__ZStlsISt11char_traitsIcEERSt13basic_ostreamIcT_ES5_PKc
	movl	$__ZSt4endlIcSt11char_traitsIcEERSt13basic_ostreamIT_T0_ES6_, (%esp)
	movl	%eax, %ecx
	call	__ZNSolsEPFRSoS_E
	subl	$4, %esp
	movl	$LC1, 4(%esp)
	movl	$__ZSt4cout, (%esp)
	call	__ZStlsISt11char_traitsIcEERSt13basic_ostreamIcT_ES5_PKc
	movl	%eax, %edx
	movl	-12(%ebp), %eax
	movl	%eax, (%esp)
	movl	%edx, %ecx
	call	__ZNSolsEi
	subl	$4, %esp
	movl	$__ZSt4endlIcSt11char_traitsIcEERSt13basic_ostreamIT_T0_ES6_, (%esp)
	movl	%eax, %ecx
	call	__ZNSolsEPFRSoS_E
	subl	$4, %esp
	movl	$LC2, 4(%esp)
	movl	$__ZSt4cout, (%esp)
	call	__ZStlsISt11char_traitsIcEERSt13basic_ostreamIcT_ES5_PKc
	movl	%eax, %edx
	movl	-16(%ebp), %eax
	movl	%eax, (%esp)
	movl	%edx, %ecx
	call	__ZNSolsEi
	subl	$4, %esp
	movl	$__ZSt4endlIcSt11char_traitsIcEERSt13basic_ostreamIT_T0_ES6_, (%esp)
	movl	%eax, %ecx
	call	__ZNSolsEPFRSoS_E
	subl	$4, %esp
	movl	$LC3, 4(%esp)
	movl	$__ZSt4cout, (%esp)
	call	__ZStlsISt11char_traitsIcEERSt13basic_ostreamIcT_ES5_PKc
	movl	%eax, %edx
	movl	-20(%ebp), %eax
	movl	%eax, (%esp)
	movl	%edx, %ecx
	call	__ZNSolsEi
	subl	$4, %esp
	movl	$__ZSt4endlIcSt11char_traitsIcEERSt13basic_ostreamIT_T0_ES6_, (%esp)
	movl	%eax, %ecx
	call	__ZNSolsEPFRSoS_E
	subl	$4, %esp
	movl	-24(%ebp), %eax
	movl	%eax, (%esp)
	movl	$__ZSt4cout, %ecx
	call	__ZNSolsEi
	subl	$4, %esp
	movl	$__ZSt4endlIcSt11char_traitsIcEERSt13basic_ostreamIT_T0_ES6_, (%esp)
	movl	%eax, %ecx
	call	__ZNSolsEPFRSoS_E
	subl	$4, %esp
	movl	$LC4, 4(%esp)
	movl	$__ZSt4cout, (%esp)
	call	__ZStlsISt11char_traitsIcEERSt13basic_ostreamIcT_ES5_PKc
	movl	$__ZSt4endlIcSt11char_traitsIcEERSt13basic_ostreamIT_T0_ES6_, (%esp)
	movl	%eax, %ecx
	call	__ZNSolsEPFRSoS_E
	subl	$4, %esp
	movl	$LC5, 4(%esp)
	movl	$__ZSt4cout, (%esp)
	call	__ZStlsISt11char_traitsIcEERSt13basic_ostreamIcT_ES5_PKc
	movl	$__ZSt4endlIcSt11char_traitsIcEERSt13basic_ostreamIT_T0_ES6_, (%esp)
	movl	%eax, %ecx
	call	__ZNSolsEPFRSoS_E
LEHE0:
	subl	$4, %esp
	leal	-29(%ebp), %eax
	movl	%eax, %ecx
	call	__ZNSaIcEC1Ev
	leal	-56(%ebp), %eax
	leal	-29(%ebp), %edx
	movl	%edx, 4(%esp)
	movl	$LC6, (%esp)
	movl	%eax, %ecx
LEHB1:
	call	__ZNSt7__cxx1112basic_stringIcSt11char_traitsIcESaIcEEC1IS3_EEPKcRKS3_
LEHE1:
	subl	$8, %esp
	leal	-29(%ebp), %eax
	movl	%eax, %ecx
	call	__ZNSaIcED1Ev
	movl	$LC7, 4(%esp)
	movl	$__ZSt4cout, (%esp)
LEHB2:
	call	__ZStlsISt11char_traitsIcEERSt13basic_ostreamIcT_ES5_PKc
	leal	-56(%ebp), %edx
	movl	%edx, 4(%esp)
	movl	%eax, (%esp)
	call	__ZStlsIcSt11char_traitsIcESaIcEERSt13basic_ostreamIT_T0_ES7_RKNSt7__cxx1112basic_stringIS4_S5_T1_EE
	movl	$__ZSt4endlIcSt11char_traitsIcEERSt13basic_ostreamIT_T0_ES6_, (%esp)
	movl	%eax, %ecx
	call	__ZNSolsEPFRSoS_E
	subl	$4, %esp
	leal	-56(%ebp), %eax
	movl	$LC8, (%esp)
	movl	%eax, %ecx
	call	__ZNSt7__cxx1112basic_stringIcSt11char_traitsIcESaIcEEaSEPKc
	subl	$4, %esp
	movl	$LC9, 4(%esp)
	movl	$__ZSt4cout, (%esp)
	call	__ZStlsISt11char_traitsIcEERSt13basic_ostreamIcT_ES5_PKc
	leal	-56(%ebp), %edx
	movl	%edx, 4(%esp)
	movl	%eax, (%esp)
	call	__ZStlsIcSt11char_traitsIcESaIcEERSt13basic_ostreamIT_T0_ES7_RKNSt7__cxx1112basic_stringIS4_S5_T1_EE
	movl	$__ZSt4endlIcSt11char_traitsIcEERSt13basic_ostreamIT_T0_ES6_, (%esp)
	movl	%eax, %ecx
	call	__ZNSolsEPFRSoS_E
	subl	$4, %esp
	movl	$2566, -28(%ebp)
	movl	$LC10, 4(%esp)
	movl	$__ZSt4cout, (%esp)
	call	__ZStlsISt11char_traitsIcEERSt13basic_ostreamIcT_ES5_PKc
	movl	$2566, (%esp)
	movl	%eax, %ecx
	call	__ZNSolsEi
	subl	$4, %esp
	movl	$__ZSt4endlIcSt11char_traitsIcEERSt13basic_ostreamIT_T0_ES6_, (%esp)
	movl	%eax, %ecx
	call	__ZNSolsEPFRSoS_E
	subl	$4, %esp
	movl	$__ZSt3cin, %ecx
	call	__ZNSi6ignoreEv
LEHE2:
	movl	$0, %ebx
	leal	-56(%ebp), %eax
	movl	%eax, %ecx
	call	__ZNSt7__cxx1112basic_stringIcSt11char_traitsIcESaIcEED1Ev
	movl	%ebx, %eax
	jmp	L12
L10:
	movl	%eax, %ebx
	leal	-29(%ebp), %eax
	movl	%eax, %ecx
	call	__ZNSaIcED1Ev
	movl	%ebx, %eax
	movl	%eax, (%esp)
LEHB3:
	call	__Unwind_Resume
L11:
	movl	%eax, %ebx
	leal	-56(%ebp), %eax
	movl	%eax, %ecx
	call	__ZNSt7__cxx1112basic_stringIcSt11char_traitsIcESaIcEED1Ev
	movl	%ebx, %eax
	movl	%eax, (%esp)
	call	__Unwind_Resume
LEHE3:
L12:
	leal	-8(%ebp), %esp
	popl	%ecx
	.cfi_restore 1
	.cfi_def_cfa 1, 0
	popl	%ebx
	.cfi_restore 3
	popl	%ebp
	.cfi_restore 5
	leal	-4(%ecx), %esp
	.cfi_def_cfa 4, 4
	ret
	.cfi_endproc
LFE1986:
	.def	___gxx_personality_v0;	.scl	2;	.type	32;	.endef
	.section	.gcc_except_table,"w"
LLSDA1986:
	.byte	0xff
	.byte	0xff
	.byte	0x1
	.uleb128 LLSDACSE1986-LLSDACSB1986
LLSDACSB1986:
	.uleb128 LEHB0-LFB1986
	.uleb128 LEHE0-LEHB0
	.uleb128 0
	.uleb128 0
	.uleb128 LEHB1-LFB1986
	.uleb128 LEHE1-LEHB1
	.uleb128 L10-LFB1986
	.uleb128 0
	.uleb128 LEHB2-LFB1986
	.uleb128 LEHE2-LEHB2
	.uleb128 L11-LFB1986
	.uleb128 0
	.uleb128 LEHB3-LFB1986
	.uleb128 LEHE3-LEHB3
	.uleb128 0
	.uleb128 0
LLSDACSE1986:
	.text
	.section	.text$_ZN9__gnu_cxx11char_traitsIcE6lengthEPKc,"x"
	.linkonce discard
	.align 2
	.globl	__ZN9__gnu_cxx11char_traitsIcE6lengthEPKc
	.def	__ZN9__gnu_cxx11char_traitsIcE6lengthEPKc;	.scl	2;	.type	32;	.endef
__ZN9__gnu_cxx11char_traitsIcE6lengthEPKc:
LFB1987:
	.cfi_startproc
	pushl	%ebp
	.cfi_def_cfa_offset 8
	.cfi_offset 5, -8
	movl	%esp, %ebp
	.cfi_def_cfa_register 5
	subl	$40, %esp
	movl	$0, -12(%ebp)
	jmp	L14
L15:
	addl	$1, -12(%ebp)
L14:
	movb	$0, -13(%ebp)
	movl	8(%ebp), %edx
	movl	-12(%ebp), %eax
	addl	%eax, %edx
	leal	-13(%ebp), %eax
	movl	%eax, 4(%esp)
	movl	%edx, (%esp)
	call	__ZN9__gnu_cxx11char_traitsIcE2eqERKcS3_
	xorl	$1, %eax
	testb	%al, %al
	jne	L15
	movl	-12(%ebp), %eax
	leave
	.cfi_restore 5
	.cfi_def_cfa 4, 4
	ret
	.cfi_endproc
LFE1987:
	.section	.text$_ZNSt7__cxx1112basic_stringIcSt11char_traitsIcESaIcEE12_Alloc_hiderD1Ev,"x"
	.linkonce discard
	.align 2
	.globl	__ZNSt7__cxx1112basic_stringIcSt11char_traitsIcESaIcEE12_Alloc_hiderD1Ev
	.def	__ZNSt7__cxx1112basic_stringIcSt11char_traitsIcESaIcEE12_Alloc_hiderD1Ev;	.scl	2;	.type	32;	.endef
__ZNSt7__cxx1112basic_stringIcSt11char_traitsIcESaIcEE12_Alloc_hiderD1Ev:
LFB2097:
	.cfi_startproc
	pushl	%ebp
	.cfi_def_cfa_offset 8
	.cfi_offset 5, -8
	movl	%esp, %ebp
	.cfi_def_cfa_register 5
	subl	$24, %esp
	movl	%ecx, -12(%ebp)
	movl	-12(%ebp), %eax
	movl	%eax, %ecx
	call	__ZNSaIcED2Ev
	nop
	leave
	.cfi_restore 5
	.cfi_def_cfa 4, 4
	ret
	.cfi_endproc
LFE2097:
	.section .rdata,"dr"
	.align 4
LC11:
	.ascii "basic_string: construction from null is not valid\0"
	.section	.text$_ZNSt7__cxx1112basic_stringIcSt11char_traitsIcESaIcEEC1IS3_EEPKcRKS3_,"x"
	.linkonce discard
	.align 2
	.globl	__ZNSt7__cxx1112basic_stringIcSt11char_traitsIcESaIcEEC1IS3_EEPKcRKS3_
	.def	__ZNSt7__cxx1112basic_stringIcSt11char_traitsIcESaIcEEC1IS3_EEPKcRKS3_;	.scl	2;	.type	32;	.endef
__ZNSt7__cxx1112basic_stringIcSt11char_traitsIcESaIcEEC1IS3_EEPKcRKS3_:
LFB2255:
	.cfi_startproc
	.cfi_personality 0x9b,LDFCM0
	.cfi_lsda 0x1b,LLSDA2255
	pushl	%ebp
	.cfi_def_cfa_offset 8
	.cfi_offset 5, -8
	movl	%esp, %ebp
	.cfi_def_cfa_register 5
	pushl	%ebx
	subl	$52, %esp
	.cfi_offset 3, -12
	movl	%ecx, -28(%ebp)
	movl	-28(%ebp), %ebx
	movl	-28(%ebp), %eax
	movl	%eax, %ecx
	call	__ZNSt7__cxx1112basic_stringIcSt11char_traitsIcESaIcEE13_M_local_dataEv
	movl	12(%ebp), %edx
	movl	%edx, 4(%esp)
	movl	%eax, (%esp)
	movl	%ebx, %ecx
	call	__ZNSt7__cxx1112basic_stringIcSt11char_traitsIcESaIcEE12_Alloc_hiderC1EPcRKS3_
	subl	$8, %esp
	cmpl	$0, 8(%ebp)
	jne	L19
	movl	$LC11, (%esp)
LEHB4:
	call	__ZSt19__throw_logic_errorPKc
L19:
	movl	8(%ebp), %eax
	movl	%eax, (%esp)
	call	__ZNSt11char_traitsIcE6lengthEPKc
	movl	8(%ebp), %edx
	addl	%edx, %eax
	movl	%eax, -12(%ebp)
	movl	-28(%ebp), %eax
	movzbl	-29(%ebp), %ebx
	movb	%bl, 8(%esp)
	movl	-12(%ebp), %edx
	movl	%edx, 4(%esp)
	movl	8(%ebp), %edx
	movl	%edx, (%esp)
	movl	%eax, %ecx
	call	__ZNSt7__cxx1112basic_stringIcSt11char_traitsIcESaIcEE12_M_constructIPKcEEvT_S8_St20forward_iterator_tag
LEHE4:
	subl	$12, %esp
	jmp	L22
L21:
	movl	%eax, %ebx
	movl	-28(%ebp), %eax
	movl	%eax, %ecx
	call	__ZNSt7__cxx1112basic_stringIcSt11char_traitsIcESaIcEE12_Alloc_hiderD1Ev
	movl	%ebx, %eax
	movl	%eax, (%esp)
LEHB5:
	call	__Unwind_Resume
LEHE5:
L22:
	movl	-4(%ebp), %ebx
	leave
	.cfi_restore 5
	.cfi_restore 3
	.cfi_def_cfa 4, 4
	ret	$8
	.cfi_endproc
LFE2255:
	.section	.gcc_except_table,"w"
LLSDA2255:
	.byte	0xff
	.byte	0xff
	.byte	0x1
	.uleb128 LLSDACSE2255-LLSDACSB2255
LLSDACSB2255:
	.uleb128 LEHB4-LFB2255
	.uleb128 LEHE4-LEHB4
	.uleb128 L21-LFB2255
	.uleb128 0
	.uleb128 LEHB5-LFB2255
	.uleb128 LEHE5-LEHB5
	.uleb128 0
	.uleb128 0
LLSDACSE2255:
	.section	.text$_ZNSt7__cxx1112basic_stringIcSt11char_traitsIcESaIcEEC1IS3_EEPKcRKS3_,"x"
	.linkonce discard
	.section	.text$_ZN9__gnu_cxx11char_traitsIcE2eqERKcS3_,"x"
	.linkonce discard
	.globl	__ZN9__gnu_cxx11char_traitsIcE2eqERKcS3_
	.def	__ZN9__gnu_cxx11char_traitsIcE2eqERKcS3_;	.scl	2;	.type	32;	.endef
__ZN9__gnu_cxx11char_traitsIcE2eqERKcS3_:
LFB2258:
	.cfi_startproc
	pushl	%ebp
	.cfi_def_cfa_offset 8
	.cfi_offset 5, -8
	movl	%esp, %ebp
	.cfi_def_cfa_register 5
	movl	8(%ebp), %eax
	movzbl	(%eax), %edx
	movl	12(%ebp), %eax
	movzbl	(%eax), %eax
	cmpb	%al, %dl
	sete	%al
	popl	%ebp
	.cfi_restore 5
	.cfi_def_cfa 4, 4
	ret
	.cfi_endproc
LFE2258:
	.section	.text$_ZZNSt7__cxx1112basic_stringIcSt11char_traitsIcESaIcEE12_M_constructIPKcEEvT_S8_St20forward_iterator_tagEN6_GuardC1EPS4_,"x"
	.linkonce discard
	.align 2
	.globl	__ZZNSt7__cxx1112basic_stringIcSt11char_traitsIcESaIcEE12_M_constructIPKcEEvT_S8_St20forward_iterator_tagEN6_GuardC1EPS4_
	.def	__ZZNSt7__cxx1112basic_stringIcSt11char_traitsIcESaIcEE12_M_constructIPKcEEvT_S8_St20forward_iterator_tagEN6_GuardC1EPS4_;	.scl	2;	.type	32;	.endef
__ZZNSt7__cxx1112basic_stringIcSt11char_traitsIcESaIcEE12_M_constructIPKcEEvT_S8_St20forward_iterator_tagEN6_GuardC1EPS4_:
LFB2296:
	.cfi_startproc
	pushl	%ebp
	.cfi_def_cfa_offset 8
	.cfi_offset 5, -8
	movl	%esp, %ebp
	.cfi_def_cfa_register 5
	subl	$4, %esp
	movl	%ecx, -4(%ebp)
	movl	-4(%ebp), %eax
	movl	8(%ebp), %edx
	movl	%edx, (%eax)
	nop
	leave
	.cfi_restore 5
	.cfi_def_cfa 4, 4
	ret	$4
	.cfi_endproc
LFE2296:
	.section	.text$_ZZNSt7__cxx1112basic_stringIcSt11char_traitsIcESaIcEE12_M_constructIPKcEEvT_S8_St20forward_iterator_tagEN6_GuardD1Ev,"x"
	.linkonce discard
	.align 2
	.globl	__ZZNSt7__cxx1112basic_stringIcSt11char_traitsIcESaIcEE12_M_constructIPKcEEvT_S8_St20forward_iterator_tagEN6_GuardD1Ev
	.def	__ZZNSt7__cxx1112basic_stringIcSt11char_traitsIcESaIcEE12_M_constructIPKcEEvT_S8_St20forward_iterator_tagEN6_GuardD1Ev;	.scl	2;	.type	32;	.endef
__ZZNSt7__cxx1112basic_stringIcSt11char_traitsIcESaIcEE12_M_constructIPKcEEvT_S8_St20forward_iterator_tagEN6_GuardD1Ev:
LFB2299:
	.cfi_startproc
	.cfi_personality 0x9b,LDFCM0
	.cfi_lsda 0x1b,LLSDA2299
	pushl	%ebp
	.cfi_def_cfa_offset 8
	.cfi_offset 5, -8
	movl	%esp, %ebp
	.cfi_def_cfa_register 5
	subl	$24, %esp
	movl	%ecx, -12(%ebp)
	movl	-12(%ebp), %eax
	movl	(%eax), %eax
	testl	%eax, %eax
	je	L28
	movl	-12(%ebp), %eax
	movl	(%eax), %eax
	movl	%eax, %ecx
	call	__ZNSt7__cxx1112basic_stringIcSt11char_traitsIcESaIcEE10_M_disposeEv
L28:
	nop
	leave
	.cfi_restore 5
	.cfi_def_cfa 4, 4
	ret
	.cfi_endproc
LFE2299:
	.section	.gcc_except_table,"w"
LLSDA2299:
	.byte	0xff
	.byte	0xff
	.byte	0x1
	.uleb128 LLSDACSE2299-LLSDACSB2299
LLSDACSB2299:
LLSDACSE2299:
	.section	.text$_ZZNSt7__cxx1112basic_stringIcSt11char_traitsIcESaIcEE12_M_constructIPKcEEvT_S8_St20forward_iterator_tagEN6_GuardD1Ev,"x"
	.linkonce discard
	.section	.text$_ZNSt7__cxx1112basic_stringIcSt11char_traitsIcESaIcEE12_M_constructIPKcEEvT_S8_St20forward_iterator_tag,"x"
	.linkonce discard
	.align 2
	.globl	__ZNSt7__cxx1112basic_stringIcSt11char_traitsIcESaIcEE12_M_constructIPKcEEvT_S8_St20forward_iterator_tag
	.def	__ZNSt7__cxx1112basic_stringIcSt11char_traitsIcESaIcEE12_M_constructIPKcEEvT_S8_St20forward_iterator_tag;	.scl	2;	.type	32;	.endef
__ZNSt7__cxx1112basic_stringIcSt11char_traitsIcESaIcEE12_M_constructIPKcEEvT_S8_St20forward_iterator_tag:
LFB2293:
	.cfi_startproc
	pushl	%ebp
	.cfi_def_cfa_offset 8
	.cfi_offset 5, -8
	movl	%esp, %ebp
	.cfi_def_cfa_register 5
	subl	$56, %esp
	movl	%ecx, -28(%ebp)
	movl	12(%ebp), %eax
	movl	%eax, 4(%esp)
	movl	8(%ebp), %eax
	movl	%eax, (%esp)
	call	__ZSt8distanceIPKcENSt15iterator_traitsIT_E15difference_typeES3_S3_
	movl	%eax, -16(%ebp)
	movl	-16(%ebp), %eax
	cmpl	$15, %eax
	jbe	L30
	movl	-28(%ebp), %eax
	movl	$0, 4(%esp)
	leal	-16(%ebp), %edx
	movl	%edx, (%esp)
	movl	%eax, %ecx
	call	__ZNSt7__cxx1112basic_stringIcSt11char_traitsIcESaIcEE9_M_createERjj
	subl	$8, %esp
	movl	%eax, %edx
	movl	-28(%ebp), %eax
	movl	%edx, (%esp)
	movl	%eax, %ecx
	call	__ZNSt7__cxx1112basic_stringIcSt11char_traitsIcESaIcEE7_M_dataEPc
	subl	$4, %esp
	movl	-16(%ebp), %edx
	movl	-28(%ebp), %eax
	movl	%edx, (%esp)
	movl	%eax, %ecx
	call	__ZNSt7__cxx1112basic_stringIcSt11char_traitsIcESaIcEE11_M_capacityEj
	subl	$4, %esp
	jmp	L31
L30:
	movl	-28(%ebp), %eax
	movl	%eax, -12(%ebp)
	movl	-12(%ebp), %eax
	movl	%eax, %ecx
	call	__ZNSt7__cxx1112basic_stringIcSt11char_traitsIcESaIcEE13_M_local_dataEv
	nop
L31:
	leal	-20(%ebp), %eax
	movl	-28(%ebp), %edx
	movl	%edx, (%esp)
	movl	%eax, %ecx
	call	__ZZNSt7__cxx1112basic_stringIcSt11char_traitsIcESaIcEE12_M_constructIPKcEEvT_S8_St20forward_iterator_tagEN6_GuardC1EPS4_
	subl	$4, %esp
	movl	-28(%ebp), %eax
	movl	%eax, %ecx
	call	__ZNKSt7__cxx1112basic_stringIcSt11char_traitsIcESaIcEE7_M_dataEv
	movl	12(%ebp), %edx
	movl	%edx, 8(%esp)
	movl	8(%ebp), %edx
	movl	%edx, 4(%esp)
	movl	%eax, (%esp)
	call	__ZNSt7__cxx1112basic_stringIcSt11char_traitsIcESaIcEE13_S_copy_charsEPcPKcS7_
	movl	$0, -20(%ebp)
	movl	-16(%ebp), %edx
	movl	-28(%ebp), %eax
	movl	%edx, (%esp)
	movl	%eax, %ecx
	call	__ZNSt7__cxx1112basic_stringIcSt11char_traitsIcESaIcEE13_M_set_lengthEj
	subl	$4, %esp
	leal	-20(%ebp), %eax
	movl	%eax, %ecx
	call	__ZZNSt7__cxx1112basic_stringIcSt11char_traitsIcESaIcEE12_M_constructIPKcEEvT_S8_St20forward_iterator_tagEN6_GuardD1Ev
	leave
	.cfi_restore 5
	.cfi_def_cfa 4, 4
	ret	$12
	.cfi_endproc
LFE2293:
	.section	.text$_ZSt8distanceIPKcENSt15iterator_traitsIT_E15difference_typeES3_S3_,"x"
	.linkonce discard
	.globl	__ZSt8distanceIPKcENSt15iterator_traitsIT_E15difference_typeES3_S3_
	.def	__ZSt8distanceIPKcENSt15iterator_traitsIT_E15difference_typeES3_S3_;	.scl	2;	.type	32;	.endef
__ZSt8distanceIPKcENSt15iterator_traitsIT_E15difference_typeES3_S3_:
LFB2390:
	.cfi_startproc
	pushl	%ebp
	.cfi_def_cfa_offset 8
	.cfi_offset 5, -8
	movl	%esp, %ebp
	.cfi_def_cfa_register 5
	pushl	%ebx
	subl	$20, %esp
	.cfi_offset 3, -12
	leal	8(%ebp), %eax
	movl	%eax, (%esp)
	call	__ZSt19__iterator_categoryIPKcENSt15iterator_traitsIT_E17iterator_categoryERKS3_
	movl	8(%ebp), %eax
	movb	%bl, 8(%esp)
	movl	12(%ebp), %edx
	movl	%edx, 4(%esp)
	movl	%eax, (%esp)
	call	__ZSt10__distanceIPKcENSt15iterator_traitsIT_E15difference_typeES3_S3_St26random_access_iterator_tag
	movl	-4(%ebp), %ebx
	leave
	.cfi_restore 5
	.cfi_restore 3
	.cfi_def_cfa 4, 4
	ret
	.cfi_endproc
LFE2390:
	.section	.text$_ZSt19__iterator_categoryIPKcENSt15iterator_traitsIT_E17iterator_categoryERKS3_,"x"
	.linkonce discard
	.globl	__ZSt19__iterator_categoryIPKcENSt15iterator_traitsIT_E17iterator_categoryERKS3_
	.def	__ZSt19__iterator_categoryIPKcENSt15iterator_traitsIT_E17iterator_categoryERKS3_;	.scl	2;	.type	32;	.endef
__ZSt19__iterator_categoryIPKcENSt15iterator_traitsIT_E17iterator_categoryERKS3_:
LFB2449:
	.cfi_startproc
	pushl	%ebp
	.cfi_def_cfa_offset 8
	.cfi_offset 5, -8
	movl	%esp, %ebp
	.cfi_def_cfa_register 5
	popl	%ebp
	.cfi_restore 5
	.cfi_def_cfa 4, 4
	ret
	.cfi_endproc
LFE2449:
	.section	.text$_ZSt10__distanceIPKcENSt15iterator_traitsIT_E15difference_typeES3_S3_St26random_access_iterator_tag,"x"
	.linkonce discard
	.globl	__ZSt10__distanceIPKcENSt15iterator_traitsIT_E15difference_typeES3_S3_St26random_access_iterator_tag
	.def	__ZSt10__distanceIPKcENSt15iterator_traitsIT_E15difference_typeES3_S3_St26random_access_iterator_tag;	.scl	2;	.type	32;	.endef
__ZSt10__distanceIPKcENSt15iterator_traitsIT_E15difference_typeES3_S3_St26random_access_iterator_tag:
LFB2450:
	.cfi_startproc
	pushl	%ebp
	.cfi_def_cfa_offset 8
	.cfi_offset 5, -8
	movl	%esp, %ebp
	.cfi_def_cfa_register 5
	movl	12(%ebp), %eax
	subl	8(%ebp), %eax
	popl	%ebp
	.cfi_restore 5
	.cfi_def_cfa 4, 4
	ret
	.cfi_endproc
LFE2450:
	.text
	.def	___tcf_0;	.scl	3;	.type	32;	.endef
___tcf_0:
LFB2525:
	.cfi_startproc
	pushl	%ebp
	.cfi_def_cfa_offset 8
	.cfi_offset 5, -8
	movl	%esp, %ebp
	.cfi_def_cfa_register 5
	subl	$8, %esp
	movl	$__ZStL8__ioinit, %ecx
	call	__ZNSt8ios_base4InitD1Ev
	leave
	.cfi_restore 5
	.cfi_def_cfa 4, 4
	ret
	.cfi_endproc
LFE2525:
	.def	__Z41__static_initialization_and_destruction_0ii;	.scl	3;	.type	32;	.endef
__Z41__static_initialization_and_destruction_0ii:
LFB2524:
	.cfi_startproc
	pushl	%ebp
	.cfi_def_cfa_offset 8
	.cfi_offset 5, -8
	movl	%esp, %ebp
	.cfi_def_cfa_register 5
	subl	$24, %esp
	cmpl	$1, 8(%ebp)
	jne	L42
	cmpl	$65535, 12(%ebp)
	jne	L42
	movl	$__ZStL8__ioinit, %ecx
	call	__ZNSt8ios_base4InitC1Ev
	movl	$___tcf_0, (%esp)
	call	_atexit
L42:
	nop
	leave
	.cfi_restore 5
	.cfi_def_cfa 4, 4
	ret
	.cfi_endproc
LFE2524:
	.def	__GLOBAL__sub_I_main;	.scl	3;	.type	32;	.endef
__GLOBAL__sub_I_main:
LFB2526:
	.cfi_startproc
	pushl	%ebp
	.cfi_def_cfa_offset 8
	.cfi_offset 5, -8
	movl	%esp, %ebp
	.cfi_def_cfa_register 5
	subl	$24, %esp
	movl	$65535, 4(%esp)
	movl	$1, (%esp)
	call	__Z41__static_initialization_and_destruction_0ii
	leave
	.cfi_restore 5
	.cfi_def_cfa 4, 4
	ret
	.cfi_endproc
LFE2526:
	.section	.ctors,"w"
	.align 4
	.long	__GLOBAL__sub_I_main
	.data
	.align 4
LDFCM0:
	.long	___gxx_personality_v0
	.ident	"GCC: (MinGW-W64 i686-ucrt-posix-dwarf, built by Brecht Sanders) 12.3.0"
	.def	_strlen;	.scl	2;	.type	32;	.endef
	.def	__ZStlsISt11char_traitsIcEERSt13basic_ostreamIcT_ES5_PKc;	.scl	2;	.type	32;	.endef
	.def	__ZSt4endlIcSt11char_traitsIcEERSt13basic_ostreamIT_T0_ES6_;	.scl	2;	.type	32;	.endef
	.def	__ZNSolsEPFRSoS_E;	.scl	2;	.type	32;	.endef
	.def	__ZNSolsEi;	.scl	2;	.type	32;	.endef
	.def	__ZNSaIcEC1Ev;	.scl	2;	.type	32;	.endef
	.def	__ZNSaIcED1Ev;	.scl	2;	.type	32;	.endef
	.def	__ZStlsIcSt11char_traitsIcESaIcEERSt13basic_ostreamIT_T0_ES7_RKNSt7__cxx1112basic_stringIS4_S5_T1_EE;	.scl	2;	.type	32;	.endef
	.def	__ZNSt7__cxx1112basic_stringIcSt11char_traitsIcESaIcEEaSEPKc;	.scl	2;	.type	32;	.endef
	.def	__ZNSi6ignoreEv;	.scl	2;	.type	32;	.endef
	.def	__ZNSt7__cxx1112basic_stringIcSt11char_traitsIcESaIcEED1Ev;	.scl	2;	.type	32;	.endef
	.def	__Unwind_Resume;	.scl	2;	.type	32;	.endef
	.def	__ZNSaIcED2Ev;	.scl	2;	.type	32;	.endef
	.def	__ZNSt7__cxx1112basic_stringIcSt11char_traitsIcESaIcEE13_M_local_dataEv;	.scl	2;	.type	32;	.endef
	.def	__ZNSt7__cxx1112basic_stringIcSt11char_traitsIcESaIcEE12_Alloc_hiderC1EPcRKS3_;	.scl	2;	.type	32;	.endef
	.def	__ZSt19__throw_logic_errorPKc;	.scl	2;	.type	32;	.endef
	.def	__ZNSt7__cxx1112basic_stringIcSt11char_traitsIcESaIcEE10_M_disposeEv;	.scl	2;	.type	32;	.endef
	.def	__ZNSt7__cxx1112basic_stringIcSt11char_traitsIcESaIcEE9_M_createERjj;	.scl	2;	.type	32;	.endef
	.def	__ZNSt7__cxx1112basic_stringIcSt11char_traitsIcESaIcEE7_M_dataEPc;	.scl	2;	.type	32;	.endef
	.def	__ZNSt7__cxx1112basic_stringIcSt11char_traitsIcESaIcEE11_M_capacityEj;	.scl	2;	.type	32;	.endef
	.def	__ZNKSt7__cxx1112basic_stringIcSt11char_traitsIcESaIcEE7_M_dataEv;	.scl	2;	.type	32;	.endef
	.def	__ZNSt7__cxx1112basic_stringIcSt11char_traitsIcESaIcEE13_S_copy_charsEPcPKcS7_;	.scl	2;	.type	32;	.endef
	.def	__ZNSt7__cxx1112basic_stringIcSt11char_traitsIcESaIcEE13_M_set_lengthEj;	.scl	2;	.type	32;	.endef
	.def	__ZNSt8ios_base4InitD1Ev;	.scl	2;	.type	32;	.endef
	.def	__ZNSt8ios_base4InitC1Ev;	.scl	2;	.type	32;	.endef
	.def	_atexit;	.scl	2;	.type	32;	.endef
